target datalayout = "e-m:e-p270:32:32-p271:32:32-p272:64:64-i64:64-i128:128-f80:128-n8:16:32:64-S128"
target triple = "x86_64-pc-linux-gnu"

%"class.sat::literal" = type { i32 }
%class.vector.2 = type { ptr }
%class.vector.17 = type { ptr }
%class.vector.27 = type { ptr }
%"struct.std::pair" = type { i32, %"class.sat::literal" }

@.str.2 = private unnamed_addr constant [115 x i8] c"generated/home/dtcxzyw/WorkSpace/Projects/compilers/llvm-opt-benchmark/bench/z3/z3/src/sat/sat_model_converter.cpp\00", align 1
@.str.7 = private unnamed_addr constant [44 x i8] c"Failed to verify: legal_to_flip(lit.var())\0A\00", align 1

; Function Attrs: mustprogress nounwind uwtable
define linkonce_odr hidden noundef nonnull align 4 dereferenceable(4) ptr @_ZNK6vectorI5lboolLb0EjEixEj(ptr noundef nonnull align 8 dereferenceable(8) %0, i32 noundef %1) #6 comdat align 2 {
  %3 = alloca ptr, align 8
  %4 = alloca i32, align 4
  store ptr %0, ptr %3, align 8, !tbaa !197
  store i32 %1, ptr %4, align 4, !tbaa !20
  %5 = load ptr, ptr %3, align 8
  %6 = getelementptr inbounds nuw %class.vector.17, ptr %5, i32 0, i32 0
  %7 = load ptr, ptr %6, align 8, !tbaa !199
  %8 = load i32, ptr %4, align 4, !tbaa !20
  %9 = zext i32 %8 to i64
  %10 = getelementptr inbounds nuw i32, ptr %7, i64 %9
  ret ptr %10
}

; Function Attrs: inlinehint mustprogress nounwind uwtable
define linkonce_odr hidden noundef i32 @_Zco5lbool(i32 noundef %0) #9 comdat {
  %2 = alloca i32, align 4
  store i32 %0, ptr %2, align 4, !tbaa !186
  %3 = load i32, ptr %2, align 4, !tbaa !186
  %4 = sub nsw i32 0, %3
  ret i32 %4
}

; Function Attrs: inlinehint mustprogress uwtable
define linkonce_odr hidden noundef i32 @_ZN3sat8value_atEjRK7svectorI5lbooljE(i32 noundef %0, ptr noundef nonnull align 8 dereferenceable(8) %1) #5 comdat {
  %3 = alloca i32, align 4
  %4 = alloca ptr, align 8
  store i32 %0, ptr %3, align 4, !tbaa !20
  store ptr %1, ptr %4, align 8, !tbaa !176
  %5 = load ptr, ptr %4, align 8, !tbaa !176
  %6 = load i32, ptr %3, align 4, !tbaa !20
  %7 = call noundef nonnull align 4 dereferenceable(4) ptr @_ZNK6vectorI5lboolLb0EjEixEj(ptr noundef nonnull align 8 dereferenceable(8) %5, i32 noundef %6)
  %8 = load i32, ptr %7, align 4, !tbaa !186
  ret i32 %8
}

; Function Attrs: mustprogress nounwind uwtable
define linkonce_odr hidden noundef nonnull align 4 dereferenceable(4) ptr @_ZN6vectorI5lboolLb0EjEixEj(ptr noundef nonnull align 8 dereferenceable(8) %0, i32 noundef %1) #6 comdat align 2 {
  %3 = alloca ptr, align 8
  %4 = alloca i32, align 4
  store ptr %0, ptr %3, align 8, !tbaa !197
  store i32 %1, ptr %4, align 4, !tbaa !20
  %5 = load ptr, ptr %3, align 8
  %6 = getelementptr inbounds nuw %class.vector.17, ptr %5, i32 0, i32 0
  %7 = load ptr, ptr %6, align 8, !tbaa !199
  %8 = load i32, ptr %4, align 4, !tbaa !20
  %9 = zext i32 %8 to i64
  %10 = getelementptr inbounds nuw i32, ptr %7, i64 %9
  ret ptr %10
}

; Function Attrs: mustprogress nounwind uwtable
define linkonce_odr hidden noundef zeroext i1 @_ZNK3sat7literal4signEv(ptr noundef nonnull align 4 dereferenceable(4) %0) #6 comdat align 2 {
  %2 = alloca ptr, align 8
  store ptr %0, ptr %2, align 8, !tbaa !195
  %3 = load ptr, ptr %2, align 8
  %4 = getelementptr inbounds nuw %"class.sat::literal", ptr %3, i32 0, i32 0
  %5 = load i32, ptr %4, align 4, !tbaa !196
  %6 = zext i32 %5 to i64
  %7 = and i64 %6, 1
  %8 = icmp ne i64 %7, 0
  ret i1 %8
}

; Function Attrs: mustprogress nounwind uwtable
define linkonce_odr hidden noundef i32 @_ZNK3sat7literal3varEv(ptr noundef nonnull align 4 dereferenceable(4) %0) #6 comdat align 2 {
  %2 = alloca ptr, align 8
  store ptr %0, ptr %2, align 8, !tbaa !195
  %3 = load ptr, ptr %2, align 8
  %4 = getelementptr inbounds nuw %"class.sat::literal", ptr %3, i32 0, i32 0
  %5 = load i32, ptr %4, align 4, !tbaa !196
  %6 = lshr i32 %5, 1
  ret i32 %6
}

; Function Attrs: inlinehint mustprogress uwtable
define linkonce_odr hidden noundef i32 @_ZN3sat8value_atENS_7literalERK7svectorI5lbooljE(i32 %0, ptr noundef nonnull align 8 dereferenceable(8) %1) #5 comdat {
  %3 = alloca %"class.sat::literal", align 4
  %4 = alloca ptr, align 8
  %5 = alloca i32, align 4
  %6 = getelementptr inbounds nuw %"class.sat::literal", ptr %3, i32 0, i32 0
  store i32 %0, ptr %6, align 4
  store ptr %1, ptr %4, align 8, !tbaa !176
  call void @llvm.lifetime.start.p0(i64 4, ptr %5) #3
  %7 = call noundef i32 @_ZNK3sat7literal3varEv(ptr noundef nonnull align 4 dereferenceable(4) %3)
  %8 = load ptr, ptr %4, align 8, !tbaa !176
  %9 = call noundef i32 @_ZN3sat8value_atEjRK7svectorI5lbooljE(i32 noundef %7, ptr noundef nonnull align 8 dereferenceable(8) %8)
  store i32 %9, ptr %5, align 4, !tbaa !186
  %10 = call noundef zeroext i1 @_ZNK3sat7literal4signEv(ptr noundef nonnull align 4 dereferenceable(4) %3)
  br i1 %10, label %11, label %14

11:                                               ; preds = %2
  %12 = load i32, ptr %5, align 4, !tbaa !186
  %13 = call noundef i32 @_Zco5lbool(i32 noundef %12)
  br label %16

14:                                               ; preds = %2
  %15 = load i32, ptr %5, align 4, !tbaa !186
  br label %16

16:                                               ; preds = %14, %11
  %17 = phi i32 [ %13, %11 ], [ %15, %14 ]
  call void @llvm.lifetime.end.p0(i64 4, ptr %5) #3
  ret i32 %17
}

; Function Attrs: mustprogress nounwind uwtable
define linkonce_odr hidden noundef nonnull align 4 dereferenceable(4) ptr @_ZNK6vectorIN3sat7literalELb0EjEixEj(ptr noundef nonnull align 8 dereferenceable(8) %0, i32 noundef %1) #6 comdat align 2 {
  %3 = alloca ptr, align 8
  %4 = alloca i32, align 4
  store ptr %0, ptr %3, align 8, !tbaa !192
  store i32 %1, ptr %4, align 4, !tbaa !20
  %5 = load ptr, ptr %3, align 8
  %6 = getelementptr inbounds nuw %class.vector.27, ptr %5, i32 0, i32 0
  %7 = load ptr, ptr %6, align 8, !tbaa !194
  %8 = load i32, ptr %4, align 4, !tbaa !20
  %9 = zext i32 %8 to i64
  %10 = getelementptr inbounds nuw %"class.sat::literal", ptr %7, i64 %9
  ret ptr %10
}

; Function Attrs: mustprogress nounwind uwtable
define linkonce_odr hidden noundef nonnull align 4 dereferenceable(8) ptr @_ZNK6vectorISt4pairIjN3sat7literalEELb0EjEixEj(ptr noundef nonnull align 8 dereferenceable(8) %0, i32 noundef %1) #6 comdat align 2 {
  %3 = alloca ptr, align 8
  %4 = alloca i32, align 4
  store ptr %0, ptr %3, align 8, !tbaa !189
  store i32 %1, ptr %4, align 4, !tbaa !20
  %5 = load ptr, ptr %3, align 8
  %6 = getelementptr inbounds nuw %class.vector.2, ptr %5, i32 0, i32 0
  %7 = load ptr, ptr %6, align 8, !tbaa !191
  %8 = load i32, ptr %4, align 4, !tbaa !20
  %9 = zext i32 %8 to i64
  %10 = getelementptr inbounds nuw %"struct.std::pair", ptr %7, i64 %9
  ret ptr %10
}

; Function Attrs: mustprogress nounwind uwtable
define linkonce_odr hidden noundef i32 @_ZNK6vectorISt4pairIjN3sat7literalEELb0EjE4sizeEv(ptr noundef nonnull align 8 dereferenceable(8) %0) #6 comdat align 2 {
  %2 = alloca i32, align 4
  %3 = alloca ptr, align 8
  store ptr %0, ptr %3, align 8, !tbaa !189
  %4 = load ptr, ptr %3, align 8
  %5 = getelementptr inbounds nuw %class.vector.2, ptr %4, i32 0, i32 0
  %6 = load ptr, ptr %5, align 8, !tbaa !191
  %7 = icmp eq ptr %6, null
  br i1 %7, label %8, label %9

8:                                                ; preds = %1
  store i32 0, ptr %2, align 4
  br label %14

9:                                                ; preds = %1
  %10 = getelementptr inbounds nuw %class.vector.2, ptr %4, i32 0, i32 0
  %11 = load ptr, ptr %10, align 8, !tbaa !191
  %12 = getelementptr inbounds i32, ptr %11, i64 -1
  %13 = load i32, ptr %12, align 4, !tbaa !20
  store i32 %13, ptr %2, align 4
  br label %14

14:                                               ; preds = %9, %8
  %15 = load i32, ptr %2, align 4
  ret i32 %15
}

; Function Attrs: mustprogress uwtable
define hidden void @_ZNK3sat15model_converter13process_stackER7svectorI5lbooljERKS1_INS_7literalEjERKS1_ISt4pairIjS5_EjE(ptr noundef nonnull align 8 dereferenceable(40) %0, ptr noundef nonnull align 8 dereferenceable(8) %1, ptr noundef nonnull align 8 dereferenceable(8) %2, ptr noundef nonnull align 8 dereferenceable(8) %3) #4 align 2 {
  %5 = alloca ptr, align 8
  %6 = alloca ptr, align 8
  %7 = alloca ptr, align 8
  %8 = alloca ptr, align 8
  %9 = alloca i32, align 4
  %10 = alloca i32, align 4
  %11 = alloca i32, align 4
  %12 = alloca i32, align 4
  %13 = alloca %"class.sat::literal", align 4
  %14 = alloca i8, align 1
  %15 = alloca i32, align 4
  %16 = alloca %"class.sat::literal", align 4
  store ptr %0, ptr %5, align 8, !tbaa !3
  store ptr %1, ptr %6, align 8, !tbaa !176
  store ptr %2, ptr %7, align 8, !tbaa !178
  store ptr %3, ptr %8, align 8, !tbaa !179
  %17 = load ptr, ptr %5, align 8
  call void @llvm.lifetime.start.p0(i64 4, ptr %9) #3
  %18 = load ptr, ptr %8, align 8, !tbaa !179
  %19 = call noundef i32 @_ZNK6vectorISt4pairIjN3sat7literalEELb0EjE4sizeEv(ptr noundef nonnull align 8 dereferenceable(8) %18)
  store i32 %19, ptr %9, align 4, !tbaa !20
  call void @llvm.lifetime.start.p0(i64 4, ptr %10) #3
  %20 = load i32, ptr %9, align 4, !tbaa !20
  store i32 %20, ptr %10, align 4, !tbaa !20
  br label %21

21:                                               ; preds = %72, %4
  %22 = load i32, ptr %10, align 4, !tbaa !20
  %23 = add i32 %22, -1
  store i32 %23, ptr %10, align 4, !tbaa !20
  %24 = icmp ugt i32 %22, 0
  br i1 %24, label %26, label %25

25:                                               ; preds = %21
  store i32 2, ptr %11, align 4
  call void @llvm.lifetime.end.p0(i64 4, ptr %10) #3
  br label %73

26:                                               ; preds = %21
  call void @llvm.lifetime.start.p0(i64 4, ptr %12) #3
  %27 = load ptr, ptr %8, align 8, !tbaa !179
  %28 = load i32, ptr %10, align 4, !tbaa !20
  %29 = call noundef nonnull align 4 dereferenceable(8) ptr @_ZNK6vectorISt4pairIjN3sat7literalEELb0EjEixEj(ptr noundef nonnull align 8 dereferenceable(8) %27, i32 noundef %28)
  %30 = getelementptr inbounds nuw %"struct.std::pair", ptr %29, i32 0, i32 0
  %31 = load i32, ptr %30, align 4, !tbaa !181
  store i32 %31, ptr %12, align 4, !tbaa !20
  call void @llvm.lifetime.start.p0(i64 4, ptr %13) #3
  %32 = load ptr, ptr %8, align 8, !tbaa !179
  %33 = load i32, ptr %10, align 4, !tbaa !20
  %34 = call noundef nonnull align 4 dereferenceable(8) ptr @_ZNK6vectorISt4pairIjN3sat7literalEELb0EjEixEj(ptr noundef nonnull align 8 dereferenceable(8) %32, i32 noundef %33)
  %35 = getelementptr inbounds nuw %"struct.std::pair", ptr %34, i32 0, i32 1
  call void @llvm.memcpy.p0.p0.i64(ptr align 4 %13, ptr align 4 %35, i64 4, i1 false), !tbaa.struct !183
  call void @llvm.lifetime.start.p0(i64 1, ptr %14) #3
  store i8 0, ptr %14, align 1, !tbaa !31
  call void @llvm.lifetime.start.p0(i64 4, ptr %15) #3
  store i32 0, ptr %15, align 4, !tbaa !20
  br label %36

36:                                               ; preds = %56, %26
  %37 = load i8, ptr %14, align 1, !tbaa !31, !range !33, !noundef !34
  %38 = trunc i8 %37 to i1
  br i1 %38, label %43, label %39

39:                                               ; preds = %36
  %40 = load i32, ptr %15, align 4, !tbaa !20
  %41 = load i32, ptr %12, align 4, !tbaa !20
  %42 = icmp ult i32 %40, %41
  br label %43

43:                                               ; preds = %39, %36
  %44 = phi i1 [ false, %36 ], [ %42, %39 ]
  br i1 %44, label %46, label %45

45:                                               ; preds = %43
  store i32 4, ptr %11, align 4
  call void @llvm.lifetime.end.p0(i64 4, ptr %15) #3
  br label %59

46:                                               ; preds = %43
  %47 = load ptr, ptr %7, align 8, !tbaa !178
  %48 = load i32, ptr %15, align 4, !tbaa !20
  %49 = call noundef nonnull align 4 dereferenceable(4) ptr @_ZNK6vectorIN3sat7literalELb0EjEixEj(ptr noundef nonnull align 8 dereferenceable(8) %47, i32 noundef %48)
  call void @llvm.memcpy.p0.p0.i64(ptr align 4 %16, ptr align 4 %49, i64 4, i1 false), !tbaa.struct !183
  %50 = load ptr, ptr %6, align 8, !tbaa !176
  %51 = getelementptr inbounds nuw %"class.sat::literal", ptr %16, i32 0, i32 0
  %52 = load i32, ptr %51, align 4
  %53 = call noundef i32 @_ZN3sat8value_atENS_7literalERK7svectorI5lbooljE(i32 %52, ptr noundef nonnull align 8 dereferenceable(8) %50)
  %54 = icmp eq i32 %53, 1
  %55 = zext i1 %54 to i8
  store i8 %55, ptr %14, align 1, !tbaa !31
  br label %56

56:                                               ; preds = %46
  %57 = load i32, ptr %15, align 4, !tbaa !20
  %58 = add i32 %57, 1
  store i32 %58, ptr %15, align 4, !tbaa !20
  br label %36, !llvm.loop !184

59:                                               ; preds = %45
  %60 = load i8, ptr %14, align 1, !tbaa !31, !range !33, !noundef !34
  %61 = trunc i8 %60 to i1
  br i1 %61, label %72, label %62

62:                                               ; preds = %59
  %63 = call noundef i32 @_ZNK3sat7literal3varEv(ptr noundef nonnull align 4 dereferenceable(4) %13)
  %64 = call noundef zeroext i1 @_ZNK3sat15model_converter13legal_to_flipEj(ptr noundef nonnull align 8 dereferenceable(40) %17, i32 noundef %63)
  br i1 %64, label %66, label %65

65:                                               ; preds = %62
  call void @_Z26notify_assertion_violationPKciS0_(ptr noundef @.str.2, i32 noundef 56, ptr noundef @.str.7)
  call void @_Z18invoke_exit_actionj(i32 noundef 114)
  br label %66

66:                                               ; preds = %65, %62
  %67 = call noundef zeroext i1 @_ZNK3sat7literal4signEv(ptr noundef nonnull align 4 dereferenceable(4) %13)
  %68 = select i1 %67, i32 -1, i32 1
  %69 = load ptr, ptr %6, align 8, !tbaa !176
  %70 = call noundef i32 @_ZNK3sat7literal3varEv(ptr noundef nonnull align 4 dereferenceable(4) %13)
  %71 = call noundef nonnull align 4 dereferenceable(4) ptr @_ZN6vectorI5lboolLb0EjEixEj(ptr noundef nonnull align 8 dereferenceable(8) %69, i32 noundef %70)
  store i32 %68, ptr %71, align 4, !tbaa !186
  br label %72

72:                                               ; preds = %66, %59
  call void @llvm.lifetime.end.p0(i64 1, ptr %14) #3
  call void @llvm.lifetime.end.p0(i64 4, ptr %13) #3
  call void @llvm.lifetime.end.p0(i64 4, ptr %12) #3
  br label %21, !llvm.loop !188

73:                                               ; preds = %25
  call void @llvm.lifetime.end.p0(i64 4, ptr %9) #3
  ret void
}