; Function Attrs: mustprogress uwtable
define hidden void @_ZNK3sat15model_converter13process_stackER7svectorI5lbooljERKS1_INS_7literalEjERKS1_ISt4pairIjS5_EjE(ptr noundef nonnull readonly align 8 captures(none) dereferenceable(40) %0, ptr noundef nonnull readonly align 8 captures(none) dereferenceable(8) %1, ptr noundef nonnull readonly align 8 captures(none) dereferenceable(8) %2, ptr noundef nonnull readonly align 8 captures(none) dereferenceable(8) %3) local_unnamed_addr #3 align 2 {
  %5 = load ptr, ptr %3, align 8, !tbaa !180
  %6 = icmp eq ptr %5, null
  br i1 %6, label %._crit_edge26, label %_ZNK6vectorISt4pairIjN3sat7literalEELb0EjE4sizeEv.exit

_ZNK6vectorISt4pairIjN3sat7literalEELb0EjE4sizeEv.exit: ; preds = %4
  %7 = getelementptr inbounds i8, ptr %5, i64 -4
  %8 = load i32, ptr %7, align 4, !tbaa !9
  %.not24 = icmp eq i32 %8, 0
  br i1 %.not24, label %._crit_edge26, label %.lr.ph25.preheader

.lr.ph25.preheader:                               ; preds = %_ZNK6vectorISt4pairIjN3sat7literalEELb0EjE4sizeEv.exit
  %9 = zext i32 %8 to i64
  br label %.lr.ph25

._crit_edge26:                                    ; preds = %39, %4, %_ZNK6vectorISt4pairIjN3sat7literalEELb0EjE4sizeEv.exit
  ret void

.lr.ph25:                                         ; preds = %.lr.ph25.preheader, %39
  %indvars.iv28 = phi i64 [ %9, %.lr.ph25.preheader ], [ %10, %39 ]
  %10 = add nsw i64 %indvars.iv28, -1
  %11 = load ptr, ptr %3, align 8, !tbaa !180
  %12 = getelementptr inbounds nuw %"struct.std::pair", ptr %11, i64 %10
  %13 = load i32, ptr %12, align 4, !tbaa !181
  %14 = getelementptr inbounds nuw i8, ptr %12, i64 4
  %15 = load i32, ptr %14, align 4, !tbaa !9
  %16 = icmp eq i32 %13, 0
  br i1 %16, label %.critedge, label %.lr.ph

.lr.ph:                                           ; preds = %.lr.ph25
  %17 = load ptr, ptr %2, align 8, !tbaa !11
  %18 = load ptr, ptr %1, align 8, !tbaa !183
  %19 = zext i32 %13 to i64
  br label %20

._crit_edge:                                      ; preds = %20
  br i1 %28, label %39, label %.critedge

20:                                               ; preds = %.lr.ph, %20
  %indvars.iv = phi i64 [ 0, %.lr.ph ], [ %indvars.iv.next, %20 ]
  %21 = getelementptr inbounds nuw %"class.sat::literal", ptr %17, i64 %indvars.iv
  %.sroa.0.0.copyload = load i32, ptr %21, align 4, !tbaa !9
  %22 = lshr i32 %.sroa.0.0.copyload, 1
  %23 = zext nneg i32 %22 to i64
  %24 = getelementptr inbounds nuw i32, ptr %18, i64 %23
  %25 = load i32, ptr %24, align 4, !tbaa !184
  %26 = and i32 %.sroa.0.0.copyload, 1
  %.not.i = icmp eq i32 %26, 0
  %27 = sub nsw i32 0, %25
  %spec.select.i = select i1 %.not.i, i32 %25, i32 %27
  %28 = icmp eq i32 %spec.select.i, 1
  %indvars.iv.next = add nuw nsw i64 %indvars.iv, 1
  %29 = icmp samesign uge i64 %indvars.iv.next, %19
  %.not19 = select i1 %28, i1 true, i1 %29
  br i1 %.not19, label %._crit_edge, label %20, !llvm.loop !186

.critedge:                                        ; preds = %.lr.ph25, %._crit_edge
  %30 = lshr i32 %15, 1
  %31 = tail call noundef zeroext i1 @_ZNK3sat15model_converter13legal_to_flipEj(ptr noundef nonnull align 8 dereferenceable(40) %0, i32 noundef %30)
  br i1 %31, label %33, label %32

32:                                               ; preds = %.critedge
  tail call void @_Z26notify_assertion_violationPKciS0_(ptr noundef nonnull @.str.2, i32 noundef 56, ptr noundef nonnull @.str.7)
  tail call void @_Z18invoke_exit_actionj(i32 noundef 114)
  br label %33

33:                                               ; preds = %32, %.critedge
  %34 = and i32 %15, 1
  %.not22 = icmp eq i32 %34, 0
  %35 = select i1 %.not22, i32 1, i32 -1
  %36 = load ptr, ptr %1, align 8, !tbaa !183
  %37 = zext nneg i32 %30 to i64
  %38 = getelementptr inbounds nuw i32, ptr %36, i64 %37
  store i32 %35, ptr %38, align 4, !tbaa !184
  br label %39

39:                                               ; preds = %33, %._crit_edge
  %.not.wide = icmp eq i64 %10, 0
  br i1 %.not.wide, label %._crit_edge26, label %.lr.ph25, !llvm.loop !187
}